target datalayout = "e-m:e-p270:32:32-p271:32:32-p272:64:64-i64:64-i128:128-f80:128-n8:16:32:64-S128"
target triple = "x86_64-pc-linux-gnu"

@icuUtf8Trans1 = internal constant [64 x i8] c"\00\01\02\03\04\05\06\07\08\09\0A\0B\0C\0D\0E\0F\10\11\12\13\14\15\16\17\18\19\1A\1B\1C\1D\1E\1F\00\01\02\03\04\05\06\07\08\09\0A\0B\0C\0D\0E\0F\00\01\02\03\04\05\06\07\00\01\02\03\00\01\00\00", align 16

; Function Attrs: nounwind uwtable
define internal i32 @icuLikeCompare(ptr noundef %0, ptr noundef %1, i32 noundef %2) #0 {
  %4 = alloca i32, align 4
  %5 = alloca ptr, align 8
  %6 = alloca ptr, align 8
  %7 = alloca i32, align 4
  %8 = alloca i32, align 4
  %9 = alloca i32, align 4
  %10 = alloca i32, align 4
  %11 = alloca i8, align 1
  %12 = alloca i32, align 4
  store ptr %0, ptr %5, align 8, !tbaa !28
  store ptr %1, ptr %6, align 8, !tbaa !28
  store i32 %2, ptr %7, align 4, !tbaa !11
  call void @llvm.lifetime.start.p0(i64 4, ptr %8) #3
  store i32 0, ptr %8, align 4, !tbaa !11
  br label %13

13:                                               ; preds = %229, %3
  br label %14

14:                                               ; preds = %13
  call void @llvm.lifetime.start.p0(i64 4, ptr %9) #3
  %15 = load ptr, ptr %5, align 8, !tbaa !28
  %16 = getelementptr inbounds nuw i8, ptr %15, i32 1
  store ptr %16, ptr %5, align 8, !tbaa !28
  %17 = load i8, ptr %15, align 1, !tbaa !35
  %18 = zext i8 %17 to i32
  store i32 %18, ptr %9, align 4, !tbaa !11
  %19 = load i32, ptr %9, align 4, !tbaa !11
  %20 = icmp uge i32 %19, 192
  br i1 %20, label %21, label %44

21:                                               ; preds = %14
  %22 = load i32, ptr %9, align 4, !tbaa !11
  %23 = sub i32 %22, 192
  %24 = zext i32 %23 to i64
  %25 = getelementptr inbounds nuw [64 x i8], ptr @icuUtf8Trans1, i64 0, i64 %24
  %26 = load i8, ptr %25, align 1, !tbaa !35
  %27 = zext i8 %26 to i32
  store i32 %27, ptr %9, align 4, !tbaa !11
  br label %28

28:                                               ; preds = %34, %21
  %29 = load ptr, ptr %5, align 8, !tbaa !28
  %30 = load i8, ptr %29, align 1, !tbaa !35
  %31 = zext i8 %30 to i32
  %32 = and i32 %31, 192
  %33 = icmp eq i32 %32, 128
  br i1 %33, label %34, label %43

34:                                               ; preds = %28
  %35 = load i32, ptr %9, align 4, !tbaa !11
  %36 = shl i32 %35, 6
  %37 = load ptr, ptr %5, align 8, !tbaa !28
  %38 = getelementptr inbounds nuw i8, ptr %37, i32 1
  store ptr %38, ptr %5, align 8, !tbaa !28
  %39 = load i8, ptr %37, align 1, !tbaa !35
  %40 = zext i8 %39 to i32
  %41 = and i32 63, %40
  %42 = add i32 %36, %41
  store i32 %42, ptr %9, align 4, !tbaa !11
  br label %28

43:                                               ; preds = %28
  br label %44

44:                                               ; preds = %43, %14
  %45 = load i32, ptr %9, align 4, !tbaa !11
  %46 = icmp eq i32 %45, 0
  br i1 %46, label %47, label %48

47:                                               ; preds = %44
  store i32 3, ptr %10, align 4
  br label %227

48:                                               ; preds = %44
  %49 = load i32, ptr %9, align 4, !tbaa !11
  %50 = icmp eq i32 %49, 37
  br i1 %50, label %51, label %139

51:                                               ; preds = %48
  %52 = load i32, ptr %8, align 4, !tbaa !11
  %53 = icmp ne i32 %52, 0
  br i1 %53, label %139, label %54

54:                                               ; preds = %51
  %55 = load i32, ptr %9, align 4, !tbaa !11
  %56 = load i32, ptr %7, align 4, !tbaa !11
  %57 = icmp ne i32 %55, %56
  br i1 %57, label %58, label %139

58:                                               ; preds = %54
  call void @llvm.lifetime.start.p0(i64 1, ptr %11) #3
  br label %59

59:                                               ; preds = %98, %58
  %60 = load ptr, ptr %5, align 8, !tbaa !28
  %61 = load i8, ptr %60, align 1, !tbaa !35
  store i8 %61, ptr %11, align 1, !tbaa !35
  %62 = zext i8 %61 to i32
  %63 = icmp eq i32 %62, 37
  br i1 %63, label %68, label %64

64:                                               ; preds = %59
  %65 = load i8, ptr %11, align 1, !tbaa !35
  %66 = zext i8 %65 to i32
  %67 = icmp eq i32 %66, 95
  br label %68

68:                                               ; preds = %64, %59
  %69 = phi i1 [ true, %59 ], [ %67, %64 ]
  br i1 %69, label %70, label %101

70:                                               ; preds = %68
  %71 = load i8, ptr %11, align 1, !tbaa !35
  %72 = zext i8 %71 to i32
  %73 = icmp eq i32 %72, 95
  br i1 %73, label %74, label %98

74:                                               ; preds = %70
  %75 = load ptr, ptr %6, align 8, !tbaa !28
  %76 = load i8, ptr %75, align 1, !tbaa !35
  %77 = zext i8 %76 to i32
  %78 = icmp eq i32 %77, 0
  br i1 %78, label %79, label %80

79:                                               ; preds = %74
  store i32 0, ptr %4, align 4
  store i32 1, ptr %10, align 4
  br label %138

80:                                               ; preds = %74
  %81 = load ptr, ptr %6, align 8, !tbaa !28
  %82 = getelementptr inbounds nuw i8, ptr %81, i32 1
  store ptr %82, ptr %6, align 8, !tbaa !28
  %83 = load i8, ptr %81, align 1, !tbaa !35
  %84 = zext i8 %83 to i32
  %85 = icmp sge i32 %84, 192
  br i1 %85, label %86, label %97

86:                                               ; preds = %80
  br label %87

87:                                               ; preds = %93, %86
  %88 = load ptr, ptr %6, align 8, !tbaa !28
  %89 = load i8, ptr %88, align 1, !tbaa !35
  %90 = zext i8 %89 to i32
  %91 = and i32 %90, 192
  %92 = icmp eq i32 %91, 128
  br i1 %92, label %93, label %96

93:                                               ; preds = %87
  %94 = load ptr, ptr %6, align 8, !tbaa !28
  %95 = getelementptr inbounds nuw i8, ptr %94, i32 1
  store ptr %95, ptr %6, align 8, !tbaa !28
  br label %87

96:                                               ; preds = %87
  br label %97

97:                                               ; preds = %96, %80
  br label %98

98:                                               ; preds = %97, %70
  %99 = load ptr, ptr %5, align 8, !tbaa !28
  %100 = getelementptr inbounds nuw i8, ptr %99, i32 1
  store ptr %100, ptr %5, align 8, !tbaa !28
  br label %59

101:                                              ; preds = %68
  %102 = load ptr, ptr %5, align 8, !tbaa !28
  %103 = load i8, ptr %102, align 1, !tbaa !35
  %104 = zext i8 %103 to i32
  %105 = icmp eq i32 %104, 0
  br i1 %105, label %106, label %107

106:                                              ; preds = %101
  store i32 1, ptr %4, align 4
  store i32 1, ptr %10, align 4
  br label %138

107:                                              ; preds = %101
  br label %108

108:                                              ; preds = %136, %107
  %109 = load ptr, ptr %6, align 8, !tbaa !28
  %110 = load i8, ptr %109, align 1, !tbaa !35
  %111 = icmp ne i8 %110, 0
  br i1 %111, label %112, label %137

112:                                              ; preds = %108
  %113 = load ptr, ptr %5, align 8, !tbaa !28
  %114 = load ptr, ptr %6, align 8, !tbaa !28
  %115 = load i32, ptr %7, align 4, !tbaa !11
  %116 = call i32 @icuLikeCompare(ptr noundef %113, ptr noundef %114, i32 noundef %115)
  %117 = icmp ne i32 %116, 0
  br i1 %117, label %118, label %119

118:                                              ; preds = %112
  store i32 1, ptr %4, align 4
  store i32 1, ptr %10, align 4
  br label %138

119:                                              ; preds = %112
  %120 = load ptr, ptr %6, align 8, !tbaa !28
  %121 = getelementptr inbounds nuw i8, ptr %120, i32 1
  store ptr %121, ptr %6, align 8, !tbaa !28
  %122 = load i8, ptr %120, align 1, !tbaa !35
  %123 = zext i8 %122 to i32
  %124 = icmp sge i32 %123, 192
  br i1 %124, label %125, label %136

125:                                              ; preds = %119
  br label %126

126:                                              ; preds = %132, %125
  %127 = load ptr, ptr %6, align 8, !tbaa !28
  %128 = load i8, ptr %127, align 1, !tbaa !35
  %129 = zext i8 %128 to i32
  %130 = and i32 %129, 192
  %131 = icmp eq i32 %130, 128
  br i1 %131, label %132, label %135

132:                                              ; preds = %126
  %133 = load ptr, ptr %6, align 8, !tbaa !28
  %134 = getelementptr inbounds nuw i8, ptr %133, i32 1
  store ptr %134, ptr %6, align 8, !tbaa !28
  br label %126

135:                                              ; preds = %126
  br label %136

136:                                              ; preds = %135, %119
  br label %108

137:                                              ; preds = %108
  store i32 0, ptr %4, align 4
  store i32 1, ptr %10, align 4
  br label %138

138:                                              ; preds = %137, %118, %106, %79
  call void @llvm.lifetime.end.p0(i64 1, ptr %11) #3
  br label %227

139:                                              ; preds = %54, %51, %48
  %140 = load i32, ptr %9, align 4, !tbaa !11
  %141 = icmp eq i32 %140, 95
  br i1 %141, label %142, label %173

142:                                              ; preds = %139
  %143 = load i32, ptr %8, align 4, !tbaa !11
  %144 = icmp ne i32 %143, 0
  br i1 %144, label %173, label %145

145:                                              ; preds = %142
  %146 = load i32, ptr %9, align 4, !tbaa !11
  %147 = load i32, ptr %7, align 4, !tbaa !11
  %148 = icmp ne i32 %146, %147
  br i1 %148, label %149, label %173

149:                                              ; preds = %145
  %150 = load ptr, ptr %6, align 8, !tbaa !28
  %151 = load i8, ptr %150, align 1, !tbaa !35
  %152 = zext i8 %151 to i32
  %153 = icmp eq i32 %152, 0
  br i1 %153, label %154, label %155

154:                                              ; preds = %149
  store i32 0, ptr %4, align 4
  store i32 1, ptr %10, align 4
  br label %227

155:                                              ; preds = %149
  %156 = load ptr, ptr %6, align 8, !tbaa !28
  %157 = getelementptr inbounds nuw i8, ptr %156, i32 1
  store ptr %157, ptr %6, align 8, !tbaa !28
  %158 = load i8, ptr %156, align 1, !tbaa !35
  %159 = zext i8 %158 to i32
  %160 = icmp sge i32 %159, 192
  br i1 %160, label %161, label %172

161:                                              ; preds = %155
  br label %162

162:                                              ; preds = %168, %161
  %163 = load ptr, ptr %6, align 8, !tbaa !28
  %164 = load i8, ptr %163, align 1, !tbaa !35
  %165 = zext i8 %164 to i32
  %166 = and i32 %165, 192
  %167 = icmp eq i32 %166, 128
  br i1 %167, label %168, label %171

168:                                              ; preds = %162
  %169 = load ptr, ptr %6, align 8, !tbaa !28
  %170 = getelementptr inbounds nuw i8, ptr %169, i32 1
  store ptr %170, ptr %6, align 8, !tbaa !28
  br label %162

171:                                              ; preds = %162
  br label %172

172:                                              ; preds = %171, %155
  br label %225

173:                                              ; preds = %145, %142, %139
  %174 = load i32, ptr %9, align 4, !tbaa !11
  %175 = load i32, ptr %7, align 4, !tbaa !11
  %176 = icmp eq i32 %174, %175
  br i1 %176, label %177, label %181

177:                                              ; preds = %173
  %178 = load i32, ptr %8, align 4, !tbaa !11
  %179 = icmp ne i32 %178, 0
  br i1 %179, label %181, label %180

180:                                              ; preds = %177
  store i32 1, ptr %8, align 4, !tbaa !11
  br label %224

181:                                              ; preds = %177, %173
  call void @llvm.lifetime.start.p0(i64 4, ptr %12) #3
  %182 = load ptr, ptr %6, align 8, !tbaa !28
  %183 = getelementptr inbounds nuw i8, ptr %182, i32 1
  store ptr %183, ptr %6, align 8, !tbaa !28
  %184 = load i8, ptr %182, align 1, !tbaa !35
  %185 = zext i8 %184 to i32
  store i32 %185, ptr %12, align 4, !tbaa !11
  %186 = load i32, ptr %12, align 4, !tbaa !11
  %187 = icmp uge i32 %186, 192
  br i1 %187, label %188, label %211

188:                                              ; preds = %181
  %189 = load i32, ptr %12, align 4, !tbaa !11
  %190 = sub i32 %189, 192
  %191 = zext i32 %190 to i64
  %192 = getelementptr inbounds nuw [64 x i8], ptr @icuUtf8Trans1, i64 0, i64 %191
  %193 = load i8, ptr %192, align 1, !tbaa !35
  %194 = zext i8 %193 to i32
  store i32 %194, ptr %12, align 4, !tbaa !11
  br label %195

195:                                              ; preds = %201, %188
  %196 = load ptr, ptr %6, align 8, !tbaa !28
  %197 = load i8, ptr %196, align 1, !tbaa !35
  %198 = zext i8 %197 to i32
  %199 = and i32 %198, 192
  %200 = icmp eq i32 %199, 128
  br i1 %200, label %201, label %210

201:                                              ; preds = %195
  %202 = load i32, ptr %12, align 4, !tbaa !11
  %203 = shl i32 %202, 6
  %204 = load ptr, ptr %6, align 8, !tbaa !28
  %205 = getelementptr inbounds nuw i8, ptr %204, i32 1
  store ptr %205, ptr %6, align 8, !tbaa !28
  %206 = load i8, ptr %204, align 1, !tbaa !35
  %207 = zext i8 %206 to i32
  %208 = and i32 63, %207
  %209 = add i32 %203, %208
  store i32 %209, ptr %12, align 4, !tbaa !11
  br label %195

210:                                              ; preds = %195
  br label %211

211:                                              ; preds = %210, %181
  %212 = load i32, ptr %12, align 4, !tbaa !11
  %213 = call i32 @u_foldCase_70(i32 noundef %212, i32 noundef 0)
  store i32 %213, ptr %12, align 4, !tbaa !11
  %214 = load i32, ptr %9, align 4, !tbaa !11
  %215 = call i32 @u_foldCase_70(i32 noundef %214, i32 noundef 0)
  store i32 %215, ptr %9, align 4, !tbaa !11
  %216 = load i32, ptr %12, align 4, !tbaa !11
  %217 = load i32, ptr %9, align 4, !tbaa !11
  %218 = icmp ne i32 %216, %217
  br i1 %218, label %219, label %220

219:                                              ; preds = %211
  store i32 0, ptr %4, align 4
  store i32 1, ptr %10, align 4
  br label %221

220:                                              ; preds = %211
  store i32 0, ptr %8, align 4, !tbaa !11
  store i32 0, ptr %10, align 4
  br label %221

221:                                              ; preds = %220, %219
  call void @llvm.lifetime.end.p0(i64 4, ptr %12) #3
  %222 = load i32, ptr %10, align 4
  switch i32 %222, label %227 [
    i32 0, label %223
  ]

223:                                              ; preds = %221
  br label %224

224:                                              ; preds = %223, %180
  br label %225

225:                                              ; preds = %224, %172
  br label %226

226:                                              ; preds = %225
  store i32 0, ptr %10, align 4
  br label %227

227:                                              ; preds = %226, %221, %154, %138, %47
  call void @llvm.lifetime.end.p0(i64 4, ptr %9) #3
  %228 = load i32, ptr %10, align 4
  switch i32 %228, label %236 [
    i32 0, label %229
    i32 3, label %230
  ]

229:                                              ; preds = %227
  br label %13

230:                                              ; preds = %227
  %231 = load ptr, ptr %6, align 8, !tbaa !28
  %232 = load i8, ptr %231, align 1, !tbaa !35
  %233 = zext i8 %232 to i32
  %234 = icmp eq i32 %233, 0
  %235 = zext i1 %234 to i32
  store i32 %235, ptr %4, align 4
  store i32 1, ptr %10, align 4
  br label %236

236:                                              ; preds = %230, %227
  call void @llvm.lifetime.end.p0(i64 4, ptr %8) #3
  %237 = load i32, ptr %4, align 4
  ret i32 %237
}