; Function Attrs: nounwind uwtable
define internal fastcc range(i32 0, 2) i32 @icuLikeCompare(ptr noundef nonnull readonly captures(none) %0, ptr noundef nonnull readonly captures(none) %1, i32 noundef %2) unnamed_addr #0 {
  %.not = icmp eq i32 %2, 37
  %.not88 = icmp eq i32 %2, 95
  br label %select.unfold.outer

select.unfold.outer:                              ; preds = %select.unfold.outer.backedge, %3
  %.072.ph = phi ptr [ %1, %3 ], [ %.072.ph.be, %select.unfold.outer.backedge ]
  %.067.ph = phi ptr [ %0, %3 ], [ %.168, %select.unfold.outer.backedge ]
  br label %select.unfold

select.unfold:                                    ; preds = %select.unfold.outer, %65
  %.067 = phi ptr [ %.168, %65 ], [ %.067.ph, %select.unfold.outer ]
  %4 = phi i1 [ true, %65 ], [ false, %select.unfold.outer ]
  %5 = getelementptr inbounds nuw i8, ptr %.067, i64 1
  %6 = load i8, ptr %.067, align 1, !tbaa !20
  %7 = zext i8 %6 to i32
  %8 = icmp ugt i8 %6, -65
  br i1 %8, label %9, label %.loopexit112

9:                                                ; preds = %select.unfold
  %10 = add nsw i32 %7, -192
  %11 = zext nneg i32 %10 to i64
  %12 = getelementptr inbounds nuw [64 x i8], ptr @icuUtf8Trans1, i64 0, i64 %11
  %13 = load i8, ptr %12, align 1, !tbaa !20
  %14 = zext i8 %13 to i32
  %15 = load i8, ptr %5, align 1, !tbaa !20
  %16 = zext i8 %15 to i32
  %17 = and i32 %16, 192
  %18 = icmp eq i32 %17, 128
  br i1 %18, label %.lr.ph, label %.loopexit112

.lr.ph:                                           ; preds = %9, %.lr.ph
  %19 = phi i32 [ %25, %.lr.ph ], [ %16, %9 ]
  %.162121 = phi i32 [ %23, %.lr.ph ], [ %14, %9 ]
  %.269120 = phi ptr [ %21, %.lr.ph ], [ %5, %9 ]
  %20 = shl i32 %.162121, 6
  %21 = getelementptr inbounds nuw i8, ptr %.269120, i64 1
  %22 = and i32 %19, 63
  %23 = or disjoint i32 %22, %20
  %24 = load i8, ptr %21, align 1, !tbaa !20
  %25 = zext i8 %24 to i32
  %26 = and i32 %25, 192
  %27 = icmp eq i32 %26, 128
  br i1 %27, label %.lr.ph, label %.loopexit112

.loopexit112:                                     ; preds = %.lr.ph, %9, %select.unfold
  %.168 = phi ptr [ %5, %select.unfold ], [ %5, %9 ], [ %21, %.lr.ph ]
  %.061 = phi i32 [ %7, %select.unfold ], [ %14, %9 ], [ %23, %.lr.ph ]
  %28 = icmp eq i32 %.061, 0
  br i1 %28, label %93, label %29

29:                                               ; preds = %.loopexit112
  %30 = icmp ne i32 %.061, 37
  %31 = or i1 %.not, %30
  %or.cond90 = or i1 %4, %31
  br i1 %or.cond90, label %53, label %.preheader107

.preheader107:                                    ; preds = %29, %.loopexit106
  %.274 = phi ptr [ %.375, %.loopexit106 ], [ %.072.ph, %29 ]
  %.471 = phi ptr [ %43, %.loopexit106 ], [ %.168, %29 ]
  %32 = load i8, ptr %.471, align 1, !tbaa !20
  switch i8 %32, label %.preheader104 [
    i8 95, label %34
    i8 37, label %.loopexit106
    i8 0, label %.thread
  ]

.preheader104:                                    ; preds = %.preheader107
  %33 = load i8, ptr %.274, align 1, !tbaa !20
  %.not86128 = icmp eq i8 %33, 0
  br i1 %.not86128, label %.thread, label %.lr.ph130

34:                                               ; preds = %.preheader107
  %35 = load i8, ptr %.274, align 1, !tbaa !20
  %36 = icmp eq i8 %35, 0
  br i1 %36, label %.thread, label %37

37:                                               ; preds = %34
  %38 = getelementptr inbounds nuw i8, ptr %.274, i64 1
  %39 = icmp ugt i8 %35, -65
  br i1 %39, label %.preheader105, label %.loopexit106

.preheader105:                                    ; preds = %37, %.preheader105
  %.577 = phi ptr [ %42, %.preheader105 ], [ %38, %37 ]
  %40 = load i8, ptr %.577, align 1, !tbaa !20
  %41 = icmp slt i8 %40, -64
  %42 = getelementptr inbounds nuw i8, ptr %.577, i64 1
  br i1 %41, label %.preheader105, label %.loopexit106

.loopexit106:                                     ; preds = %.preheader105, %.preheader107, %37
  %.375 = phi ptr [ %38, %37 ], [ %.274, %.preheader107 ], [ %.577, %.preheader105 ]
  %43 = getelementptr inbounds nuw i8, ptr %.471, i64 1
  br label %.preheader107

.lr.ph130:                                        ; preds = %.preheader104, %.loopexit
  %.6129 = phi ptr [ %.7, %.loopexit ], [ %.274, %.preheader104 ]
  %44 = tail call fastcc i32 @icuLikeCompare(ptr noundef %.471, ptr noundef %.6129, i32 noundef %2)
  %.not87 = icmp eq i32 %44, 0
  br i1 %.not87, label %45, label %.thread

45:                                               ; preds = %.lr.ph130
  %46 = getelementptr inbounds nuw i8, ptr %.6129, i64 1
  %47 = load i8, ptr %.6129, align 1, !tbaa !20
  %48 = icmp ugt i8 %47, -65
  br i1 %48, label %.preheader, label %..loopexit_crit_edge

..loopexit_crit_edge:                             ; preds = %45
  %.pre = load i8, ptr %46, align 1, !tbaa !20
  br label %.loopexit

.preheader:                                       ; preds = %45, %.preheader
  %.8 = phi ptr [ %51, %.preheader ], [ %46, %45 ]
  %49 = load i8, ptr %.8, align 1, !tbaa !20
  %50 = icmp slt i8 %49, -64
  %51 = getelementptr inbounds nuw i8, ptr %.8, i64 1
  br i1 %50, label %.preheader, label %.loopexit

.loopexit:                                        ; preds = %.preheader, %..loopexit_crit_edge
  %52 = phi i8 [ %.pre, %..loopexit_crit_edge ], [ %49, %.preheader ]
  %.7 = phi ptr [ %46, %..loopexit_crit_edge ], [ %.8, %.preheader ]
  %.not86 = icmp eq i8 %52, 0
  br i1 %.not86, label %.thread, label %.lr.ph130

53:                                               ; preds = %29
  %54 = icmp ne i32 %.061, 95
  %55 = or i1 %.not88, %54
  %or.cond91 = or i1 %4, %55
  br i1 %or.cond91, label %65, label %56

56:                                               ; preds = %53
  %57 = load i8, ptr %.072.ph, align 1, !tbaa !20
  %58 = icmp eq i8 %57, 0
  br i1 %58, label %.thread, label %59

59:                                               ; preds = %56
  %60 = getelementptr inbounds nuw i8, ptr %.072.ph, i64 1
  %61 = icmp ugt i8 %57, -65
  br i1 %61, label %.preheader111, label %select.unfold.outer.backedge

select.unfold.outer.backedge:                     ; preds = %.preheader111, %59, %.loopexit110
  %.072.ph.be = phi ptr [ %.10, %.loopexit110 ], [ %60, %59 ], [ %.9, %.preheader111 ]
  br label %select.unfold.outer

.preheader111:                                    ; preds = %59, %.preheader111
  %.9 = phi ptr [ %64, %.preheader111 ], [ %60, %59 ]
  %62 = load i8, ptr %.9, align 1, !tbaa !20
  %63 = icmp slt i8 %62, -64
  %64 = getelementptr inbounds nuw i8, ptr %.9, i64 1
  br i1 %63, label %.preheader111, label %select.unfold.outer.backedge

65:                                               ; preds = %53
  %66 = icmp ne i32 %.061, %2
  %or.cond5 = or i1 %4, %66
  br i1 %or.cond5, label %67, label %select.unfold

67:                                               ; preds = %65
  %68 = getelementptr inbounds nuw i8, ptr %.072.ph, i64 1
  %69 = load i8, ptr %.072.ph, align 1, !tbaa !20
  %70 = zext i8 %69 to i32
  %71 = icmp ugt i8 %69, -65
  br i1 %71, label %72, label %.loopexit110

72:                                               ; preds = %67
  %73 = add nsw i32 %70, -192
  %74 = zext nneg i32 %73 to i64
  %75 = getelementptr inbounds nuw [64 x i8], ptr @icuUtf8Trans1, i64 0, i64 %74
  %76 = load i8, ptr %75, align 1, !tbaa !20
  %77 = zext i8 %76 to i32
  %78 = load i8, ptr %68, align 1, !tbaa !20
  %79 = zext i8 %78 to i32
  %80 = and i32 %79, 192
  %81 = icmp eq i32 %80, 128
  br i1 %81, label %.lr.ph125, label %.loopexit110

.lr.ph125:                                        ; preds = %72, %.lr.ph125
  %82 = phi i32 [ %88, %.lr.ph125 ], [ %79, %72 ]
  %.1124 = phi i32 [ %86, %.lr.ph125 ], [ %77, %72 ]
  %.11123 = phi ptr [ %84, %.lr.ph125 ], [ %68, %72 ]
  %83 = shl i32 %.1124, 6
  %84 = getelementptr inbounds nuw i8, ptr %.11123, i64 1
  %85 = and i32 %82, 63
  %86 = or disjoint i32 %85, %83
  %87 = load i8, ptr %84, align 1, !tbaa !20
  %88 = zext i8 %87 to i32
  %89 = and i32 %88, 192
  %90 = icmp eq i32 %89, 128
  br i1 %90, label %.lr.ph125, label %.loopexit110

.loopexit110:                                     ; preds = %.lr.ph125, %72, %67
  %.10 = phi ptr [ %68, %67 ], [ %68, %72 ], [ %84, %.lr.ph125 ]
  %.0 = phi i32 [ %70, %67 ], [ %77, %72 ], [ %86, %.lr.ph125 ]
  %91 = tail call i32 @u_foldCase_70(i32 noundef %.0, i32 noundef 0) #3
  %92 = tail call i32 @u_foldCase_70(i32 noundef %.061, i32 noundef 0) #3
  %.not89 = icmp eq i32 %91, %92
  br i1 %.not89, label %select.unfold.outer.backedge, label %.thread

93:                                               ; preds = %.loopexit112
  %94 = load i8, ptr %.072.ph, align 1, !tbaa !20
  %95 = icmp eq i8 %94, 0
  %96 = zext i1 %95 to i32
  br label %.thread

.thread:                                          ; preds = %.loopexit110, %56, %34, %.preheader107, %.loopexit, %.lr.ph130, %.preheader104, %93
  %.5 = phi i32 [ %96, %93 ], [ 0, %.preheader104 ], [ 0, %.loopexit ], [ 1, %.lr.ph130 ], [ 0, %34 ], [ 1, %.preheader107 ], [ 0, %56 ], [ 0, %.loopexit110 ]
  ret i32 %.5
}